target datalayout = "e-m:e-p270:32:32-p271:32:32-p272:64:64-i64:64-i128:128-f80:128-n8:16:32:64-S128"
target triple = "x86_64-pc-linux-gnu"

%struct.AVFormatContext = type { ptr, ptr, ptr, ptr, ptr, i32, i32, ptr, i32, ptr, i32, ptr, ptr, i64, i64, i64, i32, i32, i32, i64, i64, ptr, i32, i32, ptr, i32, i32, i32, i32, ptr, i64, i32, i32, %struct.AVIOInterruptCB, i32, i32, i32, i32, i64, i32, i32, i32, i32, i32, i32, i32, i32, i32, i32, i32, i32, i64, i32, i32, i32, i32, i32, ptr, ptr, ptr, ptr, i32, ptr, ptr, ptr, ptr, i32, ptr, ptr, i64, ptr, ptr, ptr, i64 }
%struct.AVIOInterruptCB = type { ptr, ptr }
%struct.AVPacket = type { ptr, i64, i64, ptr, i32, i32, i32, ptr, i32, i64, i64, ptr, ptr, %struct.AVRational }
%struct.AVRational = type { i32, i32 }
%struct.AVStream = type { ptr, i32, i32, ptr, ptr, %struct.AVRational, i64, i64, i64, i32, i32, %struct.AVRational, ptr, %struct.AVRational, %struct.AVPacket, i32, %struct.AVRational, i32 }
%struct.MOVMuxContext = type { ptr, i32, i64, i32, i32, i32, i32, i64, i64, ptr, i32, i32, i32, i32, i32, i32, i32, i32, i32, i32, i32, ptr, i32, i32, i32, i64, ptr, i32, ptr, ptr, i32, float, i32, i32, ptr, i32, ptr, i32, ptr, i32, i32, i32, i32, i32, i32, i32, i32, i32, [2 x i64], [2 x i32], i32, i32 }
%struct.MOVTrack = type { i32, i32, i32, i32, i64, i64, i32, i64, i64, i64, i32, i32, i32, i32, i32, i32, i32, ptr, ptr, i32, i32, i32, ptr, ptr, ptr, i32, i32, i32, i32, i32, i64, i64, i64, i32, i64, i32, i32, ptr, i32, i64, i32, i64, i32, i32, %struct.HintSampleQueue, ptr, ptr, i64, i32, i32, i32, ptr, i32, %struct.anon, ptr, %struct.MOVMuxCencContext, [256 x i32], i32, i32, i32, %struct.PacketList, ptr, i32, i32, ptr }
%struct.HintSampleQueue = type { i32, i32, ptr }
%struct.anon = type { i32, i32, i32, i32, i32, i32, i32 }
%struct.MOVMuxCencContext = type { ptr, ptr, i64, i64, i32, i32, i16, i64, ptr, i64, ptr, i32, i32, ptr, %struct.CodedBitstreamFragment }
%struct.CodedBitstreamFragment = type { ptr, i64, i64, ptr, i32, i32, ptr }
%struct.PacketList = type { ptr, ptr }
%struct.AVCodecParameters = type { i32, i32, i32, ptr, i32, ptr, i32, i32, i64, i32, i32, i32, i32, i32, i32, %struct.AVRational, %struct.AVRational, i32, i32, i32, i32, i32, i32, i32, %struct.AVChannelLayout, i32, i32, i32, i32, i32, i32 }
%struct.AVChannelLayout = type { i32, i32, %union.anon, ptr }
%union.anon = type { i64 }

@.str.570 = private unnamed_addr constant [88 x i8] c"Failed to write squashed packet for %s stream with index %d and track id %d. Error: %s\0A\00", align 1

; Function Attrs: inlinehint nounwind uwtable
define internal ptr @av_make_error_string(ptr noundef %0, i64 noundef %1, i32 noundef %2) #8 {
  %4 = alloca ptr, align 8
  %5 = alloca i64, align 8
  %6 = alloca i32, align 4
  store ptr %0, ptr %4, align 8, !tbaa !38
  store i64 %1, ptr %5, align 8, !tbaa !134
  store i32 %2, ptr %6, align 4, !tbaa !32
  %7 = load i32, ptr %6, align 4, !tbaa !32
  %8 = load ptr, ptr %4, align 8, !tbaa !38
  %9 = load i64, ptr %5, align 8, !tbaa !134
  %10 = call i32 @av_strerror(i32 noundef %7, ptr noundef %8, i64 noundef %9)
  %11 = load ptr, ptr %4, align 8, !tbaa !38
  ret ptr %11
}

; Function Attrs: nounwind uwtable
define internal i32 @mov_write_squashed_packet(ptr noundef %0, ptr noundef %1) #0 {
  %3 = alloca i32, align 4
  %4 = alloca ptr, align 8
  %5 = alloca ptr, align 8
  %6 = alloca ptr, align 8
  %7 = alloca ptr, align 8
  %8 = alloca i32, align 4
  %9 = alloca i32, align 4
  %10 = alloca i32, align 4
  store ptr %0, ptr %4, align 8, !tbaa !4
  store ptr %1, ptr %5, align 8, !tbaa !47
  call void @llvm.lifetime.start.p0(i64 8, ptr %6) #14
  %11 = load ptr, ptr %4, align 8, !tbaa !4
  %12 = getelementptr inbounds nuw %struct.AVFormatContext, ptr %11, i32 0, i32 3
  %13 = load ptr, ptr %12, align 8, !tbaa !11
  store ptr %13, ptr %6, align 8, !tbaa !28
  call void @llvm.lifetime.start.p0(i64 8, ptr %7) #14
  %14 = load ptr, ptr %6, align 8, !tbaa !28
  %15 = getelementptr inbounds nuw %struct.MOVMuxContext, ptr %14, i32 0, i32 29
  %16 = load ptr, ptr %15, align 8, !tbaa !237
  store ptr %16, ptr %7, align 8, !tbaa !9
  call void @llvm.lifetime.start.p0(i64 4, ptr %8) #14
  store i32 -558323010, ptr %8, align 4, !tbaa !32
  %17 = load ptr, ptr %5, align 8, !tbaa !47
  %18 = getelementptr inbounds nuw %struct.MOVTrack, ptr %17, i32 0, i32 17
  %19 = load ptr, ptr %18, align 8, !tbaa !96
  %20 = getelementptr inbounds nuw %struct.AVStream, ptr %19, i32 0, i32 3
  %21 = load ptr, ptr %20, align 8, !tbaa !190
  %22 = getelementptr inbounds nuw %struct.AVCodecParameters, ptr %21, i32 0, i32 1
  %23 = load i32, ptr %22, align 4, !tbaa !81
  switch i32 %23, label %53 [
    i32 94232, label %24
  ]

24:                                               ; preds = %2
  call void @llvm.lifetime.start.p0(i64 4, ptr %9) #14
  %25 = load ptr, ptr %5, align 8, !tbaa !47
  %26 = getelementptr inbounds nuw %struct.MOVTrack, ptr %25, i32 0, i32 60
  %27 = getelementptr inbounds nuw %struct.PacketList, ptr %26, i32 0, i32 0
  %28 = load ptr, ptr %27, align 8, !tbaa !550
  %29 = icmp ne ptr %28, null
  %30 = xor i1 %29, true
  %31 = xor i1 %30, true
  %32 = zext i1 %31 to i32
  store i32 %32, ptr %9, align 4, !tbaa !32
  %33 = load ptr, ptr %4, align 8, !tbaa !4
  %34 = load ptr, ptr %5, align 8, !tbaa !47
  %35 = load ptr, ptr %7, align 8, !tbaa !9
  %36 = call i32 @ff_mov_generate_squashed_ttml_packet(ptr noundef %33, ptr noundef %34, ptr noundef %35)
  store i32 %36, ptr %8, align 4, !tbaa !32
  %37 = icmp slt i32 %36, 0
  br i1 %37, label %38, label %39

38:                                               ; preds = %24
  store i32 3, ptr %10, align 4
  br label %51

39:                                               ; preds = %24
  %40 = load i32, ptr %9, align 4, !tbaa !32
  %41 = icmp ne i32 %40, 0
  br i1 %41, label %48, label %42

42:                                               ; preds = %39
  %43 = load ptr, ptr %7, align 8, !tbaa !9
  %44 = getelementptr inbounds nuw %struct.AVPacket, ptr %43, i32 0, i32 9
  %45 = load i64, ptr %44, align 8, !tbaa !123
  %46 = icmp eq i64 %45, 0
  br i1 %46, label %47, label %48

47:                                               ; preds = %42
  store i32 3, ptr %10, align 4
  br label %51

48:                                               ; preds = %42, %39
  %49 = load ptr, ptr %5, align 8, !tbaa !47
  %50 = getelementptr inbounds nuw %struct.MOVTrack, ptr %49, i32 0, i32 33
  store i32 1, ptr %50, align 8, !tbaa !529
  store i32 2, ptr %10, align 4
  br label %51

51:                                               ; preds = %47, %38, %48
  call void @llvm.lifetime.end.p0(i64 4, ptr %9) #14
  %52 = load i32, ptr %10, align 4
  switch i32 %52, label %68 [
    i32 2, label %54
    i32 3, label %65
  ]

53:                                               ; preds = %2
  store i32 -22, ptr %8, align 4, !tbaa !32
  br label %65

54:                                               ; preds = %51
  %55 = load ptr, ptr %5, align 8, !tbaa !47
  %56 = getelementptr inbounds nuw %struct.MOVTrack, ptr %55, i32 0, i32 17
  %57 = load ptr, ptr %56, align 8, !tbaa !96
  %58 = getelementptr inbounds nuw %struct.AVStream, ptr %57, i32 0, i32 1
  %59 = load i32, ptr %58, align 8, !tbaa !217
  %60 = load ptr, ptr %7, align 8, !tbaa !9
  %61 = getelementptr inbounds nuw %struct.AVPacket, ptr %60, i32 0, i32 5
  store i32 %59, ptr %61, align 4, !tbaa !39
  %62 = load ptr, ptr %4, align 8, !tbaa !4
  %63 = load ptr, ptr %7, align 8, !tbaa !9
  %64 = call i32 @mov_write_single_packet(ptr noundef %62, ptr noundef %63)
  store i32 %64, ptr %8, align 4, !tbaa !32
  br label %65

65:                                               ; preds = %54, %51, %53
  %66 = load ptr, ptr %7, align 8, !tbaa !9
  call void @av_packet_unref(ptr noundef %66)
  %67 = load i32, ptr %8, align 4, !tbaa !32
  store i32 %67, ptr %3, align 4
  store i32 1, ptr %10, align 4
  br label %68

68:                                               ; preds = %65, %51
  call void @llvm.lifetime.end.p0(i64 4, ptr %8) #14
  call void @llvm.lifetime.end.p0(i64 8, ptr %7) #14
  call void @llvm.lifetime.end.p0(i64 8, ptr %6) #14
  %69 = load i32, ptr %3, align 4
  ret i32 %69
}

; Function Attrs: nounwind uwtable
define internal i32 @mov_write_squashed_packets(ptr noundef %0) #0 {
  %2 = alloca i32, align 4
  %3 = alloca ptr, align 8
  %4 = alloca ptr, align 8
  %5 = alloca i32, align 4
  %6 = alloca i32, align 4
  %7 = alloca ptr, align 8
  %8 = alloca i32, align 4
  %9 = alloca [64 x i8], align 1
  store ptr %0, ptr %3, align 8, !tbaa !4
  call void @llvm.lifetime.start.p0(i64 8, ptr %4) #14
  %10 = load ptr, ptr %3, align 8, !tbaa !4
  %11 = getelementptr inbounds nuw %struct.AVFormatContext, ptr %10, i32 0, i32 3
  %12 = load ptr, ptr %11, align 8, !tbaa !11
  store ptr %12, ptr %4, align 8, !tbaa !28
  call void @llvm.lifetime.start.p0(i64 4, ptr %5) #14
  store i32 0, ptr %5, align 4, !tbaa !32
  br label %13

13:                                               ; preds = %68, %1
  %14 = load i32, ptr %5, align 4, !tbaa !32
  %15 = load ptr, ptr %4, align 8, !tbaa !28
  %16 = getelementptr inbounds nuw %struct.MOVMuxContext, ptr %15, i32 0, i32 3
  %17 = load i32, ptr %16, align 8, !tbaa !186
  %18 = icmp slt i32 %14, %17
  br i1 %18, label %20, label %19

19:                                               ; preds = %13
  store i32 2, ptr %6, align 4
  br label %71

20:                                               ; preds = %13
  call void @llvm.lifetime.start.p0(i64 8, ptr %7) #14
  %21 = load ptr, ptr %4, align 8, !tbaa !28
  %22 = getelementptr inbounds nuw %struct.MOVMuxContext, ptr %21, i32 0, i32 9
  %23 = load ptr, ptr %22, align 8, !tbaa !49
  %24 = load i32, ptr %5, align 4, !tbaa !32
  %25 = sext i32 %24 to i64
  %26 = getelementptr inbounds %struct.MOVTrack, ptr %23, i64 %25
  store ptr %26, ptr %7, align 8, !tbaa !47
  call void @llvm.lifetime.start.p0(i64 4, ptr %8) #14
  store i32 -558323010, ptr %8, align 4, !tbaa !32
  %27 = load ptr, ptr %7, align 8, !tbaa !47
  %28 = getelementptr inbounds nuw %struct.MOVTrack, ptr %27, i32 0, i32 59
  %29 = load i32, ptr %28, align 8, !tbaa !116
  %30 = icmp ne i32 %29, 0
  br i1 %30, label %31, label %64

31:                                               ; preds = %20
  %32 = load ptr, ptr %7, align 8, !tbaa !47
  %33 = getelementptr inbounds nuw %struct.MOVTrack, ptr %32, i32 0, i32 1
  %34 = load i32, ptr %33, align 4, !tbaa !77
  %35 = icmp ne i32 %34, 0
  br i1 %35, label %64, label %36

36:                                               ; preds = %31
  %37 = load ptr, ptr %3, align 8, !tbaa !4
  %38 = load ptr, ptr %7, align 8, !tbaa !47
  %39 = call i32 @mov_write_squashed_packet(ptr noundef %37, ptr noundef %38)
  store i32 %39, ptr %8, align 4, !tbaa !32
  %40 = icmp slt i32 %39, 0
  br i1 %40, label %41, label %63

41:                                               ; preds = %36
  %42 = load ptr, ptr %3, align 8, !tbaa !4
  %43 = load ptr, ptr %7, align 8, !tbaa !47
  %44 = getelementptr inbounds nuw %struct.MOVTrack, ptr %43, i32 0, i32 17
  %45 = load ptr, ptr %44, align 8, !tbaa !96
  %46 = getelementptr inbounds nuw %struct.AVStream, ptr %45, i32 0, i32 3
  %47 = load ptr, ptr %46, align 8, !tbaa !190
  %48 = getelementptr inbounds nuw %struct.AVCodecParameters, ptr %47, i32 0, i32 1
  %49 = load i32, ptr %48, align 4, !tbaa !81
  %50 = call ptr @avcodec_get_name(i32 noundef %49)
  %51 = load ptr, ptr %7, align 8, !tbaa !47
  %52 = getelementptr inbounds nuw %struct.MOVTrack, ptr %51, i32 0, i32 17
  %53 = load ptr, ptr %52, align 8, !tbaa !96
  %54 = getelementptr inbounds nuw %struct.AVStream, ptr %53, i32 0, i32 1
  %55 = load i32, ptr %54, align 8, !tbaa !217
  %56 = load ptr, ptr %7, align 8, !tbaa !47
  %57 = getelementptr inbounds nuw %struct.MOVTrack, ptr %56, i32 0, i32 15
  %58 = load i32, ptr %57, align 4, !tbaa !321
  call void @llvm.memset.p0.i64(ptr align 1 %9, i8 0, i64 64, i1 false)
  %59 = getelementptr inbounds [64 x i8], ptr %9, i64 0, i64 0
  %60 = load i32, ptr %8, align 4, !tbaa !32
  %61 = call ptr @av_make_error_string(ptr noundef %59, i64 noundef 64, i32 noundef %60)
  call void (ptr, i32, ptr, ...) @av_log(ptr noundef %42, i32 noundef 16, ptr noundef @.str.570, ptr noundef %50, i32 noundef %55, i32 noundef %58, ptr noundef %61)
  %62 = load i32, ptr %8, align 4, !tbaa !32
  store i32 %62, ptr %2, align 4
  store i32 1, ptr %6, align 4
  br label %65

63:                                               ; preds = %36
  br label %64

64:                                               ; preds = %63, %31, %20
  store i32 0, ptr %6, align 4
  br label %65

65:                                               ; preds = %64, %41
  call void @llvm.lifetime.end.p0(i64 4, ptr %8) #14
  call void @llvm.lifetime.end.p0(i64 8, ptr %7) #14
  %66 = load i32, ptr %6, align 4
  switch i32 %66, label %71 [
    i32 0, label %67
  ]

67:                                               ; preds = %65
  br label %68

68:                                               ; preds = %67
  %69 = load i32, ptr %5, align 4, !tbaa !32
  %70 = add nsw i32 %69, 1
  store i32 %70, ptr %5, align 4, !tbaa !32
  br label %13, !llvm.loop !546

71:                                               ; preds = %65, %19
  call void @llvm.lifetime.end.p0(i64 4, ptr %5) #14
  %72 = load i32, ptr %6, align 4
  switch i32 %72, label %74 [
    i32 2, label %73
  ]

73:                                               ; preds = %71
  store i32 0, ptr %2, align 4
  store i32 1, ptr %6, align 4
  br label %74

74:                                               ; preds = %73, %71
  call void @llvm.lifetime.end.p0(i64 8, ptr %4) #14
  %75 = load i32, ptr %2, align 4
  ret i32 %75
}