; Function Attrs: nounwind uwtable
define internal fastcc range(i32 -2147483648, 1) i32 @mov_write_squashed_packets(ptr noundef %0) unnamed_addr #0 {
  %2 = alloca [64 x i8], align 1
  %3 = getelementptr inbounds nuw i8, ptr %0, i64 24
  %4 = load ptr, ptr %3, align 8, !tbaa !4
  %5 = getelementptr inbounds nuw i8, ptr %4, i64 24
  %6 = load i32, ptr %5, align 8, !tbaa !172
  %.not2451 = icmp sgt i32 %6, 0
  br i1 %.not2451, label %.lr.ph, label %.loopexit

.lr.ph:                                           ; preds = %1
  %7 = getelementptr inbounds nuw i8, ptr %4, i64 56
  br label %8

8:                                                ; preds = %.lr.ph, %55
  %indvars.iv = phi i64 [ 0, %.lr.ph ], [ %indvars.iv.next, %55 ]
  %9 = load ptr, ptr %7, align 8, !tbaa !40
  %10 = getelementptr inbounds nuw %struct.MOVTrack, ptr %9, i64 %indvars.iv
  %11 = getelementptr inbounds nuw i8, ptr %10, i64 1552
  %12 = load i32, ptr %11, align 8, !tbaa !147
  %.not = icmp eq i32 %12, 0
  br i1 %.not, label %55, label %13

13:                                               ; preds = %8
  %14 = getelementptr inbounds nuw i8, ptr %10, i64 4
  %15 = load i32, ptr %14, align 4, !tbaa !63
  %.not23 = icmp eq i32 %15, 0
  br i1 %.not23, label %16, label %55

16:                                               ; preds = %13
  %17 = load ptr, ptr %3, align 8, !tbaa !4
  %18 = getelementptr inbounds nuw i8, ptr %17, i64 168
  %19 = load ptr, ptr %18, align 8, !tbaa !207
  %20 = getelementptr inbounds nuw i8, ptr %10, i64 96
  %21 = load ptr, ptr %20, align 8, !tbaa !99
  %22 = getelementptr inbounds nuw i8, ptr %21, i64 16
  %23 = load ptr, ptr %22, align 8, !tbaa !176
  %24 = getelementptr inbounds nuw i8, ptr %23, i64 4
  %25 = load i32, ptr %24, align 4, !tbaa !84
  %cond.i = icmp eq i32 %25, 94232
  br i1 %cond.i, label %26, label %.loopexit39.sink.split

26:                                               ; preds = %16
  %27 = getelementptr inbounds nuw i8, ptr %10, i64 1560
  %28 = load ptr, ptr %27, align 8, !tbaa !513
  %29 = tail call i32 @ff_mov_generate_squashed_ttml_packet(ptr noundef nonnull %0, ptr noundef nonnull %10, ptr noundef %19) #16
  %30 = icmp slt i32 %29, 0
  br i1 %30, label %.loopexit39.sink.split, label %31

31:                                               ; preds = %26
  %.not.i = icmp eq ptr %28, null
  br i1 %.not.i, label %32, label %mov_write_squashed_packet.exit

32:                                               ; preds = %31
  %33 = getelementptr inbounds nuw i8, ptr %19, i64 64
  %34 = load i64, ptr %33, align 8, !tbaa !74
  %35 = icmp eq i64 %34, 0
  br i1 %35, label %mov_write_squashed_packet.exit.thread37, label %mov_write_squashed_packet.exit

mov_write_squashed_packet.exit.thread37:          ; preds = %32
  tail call void @av_packet_unref(ptr noundef nonnull %19) #16
  br label %55

mov_write_squashed_packet.exit:                   ; preds = %31, %32
  %36 = getelementptr inbounds nuw i8, ptr %10, i64 200
  store i32 1, ptr %36, align 8, !tbaa !490
  %37 = load ptr, ptr %20, align 8, !tbaa !99
  %38 = getelementptr inbounds nuw i8, ptr %37, i64 8
  %39 = load i32, ptr %38, align 8, !tbaa !229
  %40 = getelementptr inbounds nuw i8, ptr %19, i64 36
  store i32 %39, ptr %40, align 4, !tbaa !32
  %41 = tail call fastcc i32 @mov_write_single_packet(ptr noundef nonnull %0, ptr noundef %19)
  tail call void @av_packet_unref(ptr noundef %19) #16
  %42 = icmp slt i32 %41, 0
  br i1 %42, label %.loopexit39, label %55

.loopexit39.sink.split:                           ; preds = %26, %16
  %.018.i29.ph = phi i32 [ -22, %16 ], [ %29, %26 ]
  tail call void @av_packet_unref(ptr noundef %19) #16
  br label %.loopexit39

.loopexit39:                                      ; preds = %mov_write_squashed_packet.exit, %.loopexit39.sink.split
  %.018.i29 = phi i32 [ %.018.i29.ph, %.loopexit39.sink.split ], [ %41, %mov_write_squashed_packet.exit ]
  %43 = load ptr, ptr %20, align 8, !tbaa !99
  %44 = getelementptr inbounds nuw i8, ptr %43, i64 16
  %45 = load ptr, ptr %44, align 8, !tbaa !176
  %46 = getelementptr inbounds nuw i8, ptr %45, i64 4
  %47 = load i32, ptr %46, align 4, !tbaa !84
  %48 = tail call ptr @avcodec_get_name(i32 noundef %47) #16
  %49 = load ptr, ptr %20, align 8, !tbaa !99
  %50 = getelementptr inbounds nuw i8, ptr %49, i64 8
  %51 = load i32, ptr %50, align 8, !tbaa !229
  %52 = getelementptr inbounds nuw i8, ptr %10, i64 84
  %53 = load i32, ptr %52, align 4, !tbaa !215
  call void @llvm.memset.p0.i64(ptr noundef nonnull align 1 dereferenceable(64) %2, i8 0, i64 64, i1 false)
  %54 = call i32 @av_strerror(i32 noundef range(i32 -2147483648, 0) %.018.i29, ptr noundef nonnull %2, i64 noundef 64) #16
  call void (ptr, i32, ptr, ...) @av_log(ptr noundef nonnull %0, i32 noundef 16, ptr noundef nonnull @.str.570, ptr noundef %48, i32 noundef %51, i32 noundef %53, ptr noundef nonnull %2) #16
  br label %.loopexit

55:                                               ; preds = %mov_write_squashed_packet.exit.thread37, %mov_write_squashed_packet.exit, %13, %8
  %indvars.iv.next = add nuw nsw i64 %indvars.iv, 1
  %56 = load i32, ptr %5, align 8, !tbaa !172
  %57 = sext i32 %56 to i64
  %.not24 = icmp slt i64 %indvars.iv.next, %57
  br i1 %.not24, label %8, label %.loopexit, !llvm.loop !514

.loopexit:                                        ; preds = %55, %1, %.loopexit39
  %spec.select = phi i32 [ %.018.i29, %.loopexit39 ], [ 0, %1 ], [ 0, %55 ]
  ret i32 %spec.select
}